Certificate:
    Data:
        Version: 3 (0x2)
        Serial Number:
            c2:2f:17:90:82:55:a6:e9
        Signature Algorithm: sha1WithRSAEncryption
        Issuer: C=FR, ST=France, O=TELnet, OU=TELnet Operations, CN=loc.telnet-tl1.org
        Validity
            Not Before: Oct 27 11:29:39 2011 GMT
            Not After : Oct 26 11:29:39 2014 GMT
        Subject: C=FR, ST=France, O=TELnet, OU=TELnet Operations, CN=loc.telnet-tl1.org
        Subject Public Key Info:
            Public Key Algorithm: rsaEncryption
                Public-Key: (1024 bit)
                Modulus:
                    00:ad:c5:78:7e:88:e5:e8:e5:38:cb:1e:9a:6c:41:
                    05:72:14:3b:b0:a3:d7:37:04:94:d9:aa:cf:2d:ec:
                    20:75:19:e9:e6:21:cb:6b:0c:4c:42:0c:2a:cc:b2:
                    23:b1:11:d5:c1:85:c8:e2:05:3e:fc:a0:32:21:6c:
                    d1:0c:0d:7e:b3:60:f2:4e:2e:8b:49:d5:65:d1:3c:
                    a9:f6:d2:7a:3c:2f:29:8b:71:bc:30:31:27:61:93:
                    c7:e1:40:88:91:4d:c8:29:45:46:4b:10:a3:86:28:
                    68:ab:02:d4:f9:0e:f9:51:f6:be:cc:a4:79:c3:ac:
                    88:01:7d:5a:de:9a:96:a1:b1
                Exponent: 65537 (0x10001)
        X509v3 extensions:
            X509v3 Subject Key Identifier: 
                C7:21:2C:5E:F7:B5:29:AC:B8:AB:19:3E:38:AB:35:F8:65:5C:92:82
            X509v3 Authority Key Identifier: 
                keyid:C7:21:2C:5E:F7:B5:29:AC:B8:AB:19:3E:38:AB:35:F8:65:5C:92:82

            X509v3 Basic Constraints: 
                CA:TRUE
    Signature Algorithm: sha1WithRSAEncryption
        7c:25:cf:f7:83:61:11:ae:cd:02:ab:a5:a6:87:14:ba:e1:ce:
        25:fe:cf:da:60:90:0e:3c:d6:cc:4c:a4:38:a3:37:aa:15:e5:
        e7:10:e2:31:1c:25:55:26:bc:02:92:fd:16:92:9e:8c:1a:64:
        56:a1:51:5f:02:b7:19:f5:89:cd:ec:d6:a3:b4:09:ce:31:a6:
        ce:3a:67:d8:ef:fc:f4:c6:f5:d6:04:f3:ef:c5:17:77:31:ff:
        c7:a7:cb:4a:63:2e:07:8d:d8:a9:d5:77:5d:97:f9:16:fe:b3:
        7c:fd:5c:f5:87:45:da:03:ad:53:01:23:54:5b:a7:a5:be:48:
        bd:65
-----BEGIN CERTIFICATE-----
MIICnjCCAgegAwIBAgIJAMIvF5CCVabpMA0GCSqGSIb3DQEBBQUAMGgxCzAJBgNV
BAYTAkZSMQ8wDQYDVQQIDAZGcmFuY2UxDzANBgNVBAoMBlRFTG5ldDEaMBgGA1UE
CwwRVEVMbmV0IE9wZXJhdGlvbnMxGzAZBgNVBAMMEmxvYy50ZWxuZXQtdGwxLm9y
ZzAeFw0xMTEwMjcxMTI5MzlaFw0xNDEwMjYxMTI5MzlaMGgxCzAJBgNVBAYTAkZS
MQ8wDQYDVQQIDAZGcmFuY2UxDzANBgNVBAoMBlRFTG5ldDEaMBgGA1UECwwRVEVM
bmV0IE9wZXJhdGlvbnMxGzAZBgNVBAMMEmxvYy50ZWxuZXQtdGwxLm9yZzCBnzAN
BgkqhkiG9w0BAQEFAAOBjQAwgYkCgYEArcV4fojl6OU4yx6abEEFchQ7sKPXNwSU
2arPLewgdRnp5iHLawxMQgwqzLIjsRHVwYXI4gU+/KAyIWzRDA1+s2DyTi6LSdVl
0Typ9tJ6PC8pi3G8MDEnYZPH4UCIkU3IKUVGSxCjhihoqwLU+Q75Ufa+zKR5w6yI
AX1a3pqWobECAwEAAaNQME4wHQYDVR0OBBYEFMchLF73tSmsuKsZPjirNfhlXJKC
MB8GA1UdIwQYMBaAFMchLF73tSmsuKsZPjirNfhlXJKCMAwGA1UdEwQFMAMBAf8w
DQYJKoZIhvcNAQEFBQADgYEAfCXP94NhEa7NAqulpocUuuHOJf7P2mCQDjzWzEyk
OKM3qhXl5xDiMRwlVSa8ApL9FpKejBpkVqFRXwK3GfWJzezWo7QJzjGmzjpn2O/8
9Mb11gTz78UXdzH/x6fLSmMuB43YqdV3XZf5Fv6zfP1c9YdF2gOtUwEjVFunpb5I
vWU=
-----END CERTIFICATE-----
